target datalayout = "e-m:e-p270:32:32-p271:32:32-p272:64:64-i64:64-i128:128-f80:128-n8:16:32:64-S128"
target triple = "x86_64-pc-linux-gnu"

%"class.datalog::mk_interp_tail_simplifier::rule_substitution" = type { ptr, ptr, %class.substitution, %class.unifier, %class.obj_ref, %class.ref_vector.19, %class.svector.24, ptr }
%class.substitution = type <{ ptr, %class.var_offset_map, %class.svector.0, %class.ref_vector, %class.svector.3, %class.svector.5, %class.expr_offset_map, %class.ref_vector, %class.expr_offset_map.8, i32, [4 x i8] }>
%class.var_offset_map = type <{ %class.svector, i32, i32, i32, [4 x i8] }>
%class.svector = type { %class.vector }
%class.vector = type { ptr }
%class.svector.0 = type { %class.vector.1 }
%class.vector.1 = type { ptr }
%class.svector.3 = type { %class.vector.4 }
%class.vector.4 = type { ptr }
%class.svector.5 = type { %class.vector.6 }
%class.vector.6 = type { ptr }
%class.expr_offset_map = type <{ %class.vector.7, i32, [4 x i8] }>
%class.vector.7 = type { ptr }
%class.ref_vector = type { %class.ref_vector_core }
%class.ref_vector_core = type { %class.ref_manager_wrapper, %class.ptr_vector }
%class.ref_manager_wrapper = type { ptr }
%class.ptr_vector = type { %class.vector.2 }
%class.vector.2 = type { ptr }
%class.expr_offset_map.8 = type <{ %class.vector.9, i32, [4 x i8] }>
%class.vector.9 = type { ptr }
%class.unifier = type <{ ptr, ptr, %class.svector.11, %class.expr_offset_map.13, %class.expr_offset_map.16, i8, [7 x i8] }>
%class.svector.11 = type { %class.vector.12 }
%class.vector.12 = type { ptr }
%class.expr_offset_map.13 = type <{ %class.vector.14, i32, [4 x i8] }>
%class.vector.14 = type { ptr }
%class.expr_offset_map.16 = type <{ %class.vector.17, i32, [4 x i8] }>
%class.vector.17 = type { ptr }
%class.obj_ref = type { ptr, ptr }
%class.ref_vector.19 = type { %class.ref_vector_core.20 }
%class.ref_vector_core.20 = type { %class.ref_manager_wrapper.21, %class.ptr_vector.22 }
%class.ref_manager_wrapper.21 = type { ptr }
%class.ptr_vector.22 = type { %class.vector.23 }
%class.vector.23 = type { ptr }
%class.svector.24 = type { %class.vector.25 }
%class.vector.25 = type { ptr }
%class.obj_hashtable = type { %class.core_hashtable.base, [4 x i8] }
%class.core_hashtable.base = type <{ ptr, i32, i32, i32 }>
%class.expr_sparse_mark = type { %class.obj_hashtable }
%class.arith_util = type { ptr, ptr }
%class.ptr_vector.52 = type { %class.vector.53 }
%class.vector.53 = type { ptr }
%class.obj_hashtable.80 = type { %class.core_hashtable.base.84, [4 x i8] }
%class.core_hashtable.base.84 = type <{ ptr, i32, i32, i32 }>
%"class.datalog::rule_set" = type { ptr, ptr, %class.ref_vector.95, %class.obj_map.98, %"class.datalog::rule_dependencies", %class.scoped_ptr.108, %class.obj_hashtable.80, %class.obj_map.109, %class.obj_map.109, %class.ref_vector.114, %class.ptr_vector.52 }
%class.ref_vector.95 = type { %class.ref_vector_core.96 }
%class.ref_vector_core.96 = type { %class.ref_manager_wrapper.97, %class.ptr_vector.52 }
%class.ref_manager_wrapper.97 = type { ptr }
%class.obj_map.98 = type { %class.core_hashtable.99 }
%class.core_hashtable.99 = type <{ ptr, i32, i32, i32, [4 x i8] }>
%"class.datalog::rule_dependencies" = type { %class.obj_map.103, ptr, %class.ptr_vector, %class.expr_sparse_mark, %class.obj_hashtable.80 }
%class.obj_map.103 = type { %class.core_hashtable.104 }
%class.core_hashtable.104 = type <{ ptr, i32, i32, i32, [4 x i8] }>
%class.scoped_ptr.108 = type { ptr }
%class.obj_map.109 = type { %class.core_hashtable.110 }
%class.core_hashtable.110 = type <{ ptr, i32, i32, i32, [4 x i8] }>
%class.ref_vector.114 = type { %class.ref_vector_core.115 }
%class.ref_vector_core.115 = type { %class.ref_manager_wrapper.116, %class.ptr_vector.117 }
%class.ref_manager_wrapper.116 = type { ptr }
%class.ptr_vector.117 = type { %class.vector.118 }
%class.vector.118 = type { ptr }
%"class.datalog::mk_interp_tail_simplifier" = type { %"class.datalog::rule_transformer::plugin", ptr, ptr, ptr, %class.arith_util, %"class.datalog::mk_interp_tail_simplifier::rule_substitution", %class.ptr_vector, %class.obj_hashtable, %class.ref_vector.19, %class.ref_vector, %class.ref_vector, %class.svector.24, ptr, ptr }
%"class.datalog::rule_transformer::plugin" = type { ptr, i32, i8, ptr }
%class.scoped_ptr.153 = type { ptr }

; Function Attrs: mustprogress nounwind uwtable
define linkonce_odr hidden noundef i32 @_ZNK6vectorIPN7datalog4ruleELb0EjE4sizeEv(ptr noundef nonnull align 8 dereferenceable(8) %0) #6 comdat align 2 {
  %2 = alloca i32, align 4
  %3 = alloca ptr, align 8
  store ptr %0, ptr %3, align 8, !tbaa !588
  %4 = load ptr, ptr %3, align 8
  %5 = getelementptr inbounds nuw %class.vector.53, ptr %4, i32 0, i32 0
  %6 = load ptr, ptr %5, align 8, !tbaa !590
  %7 = icmp eq ptr %6, null
  br i1 %7, label %8, label %9

8:                                                ; preds = %1
  store i32 0, ptr %2, align 4
  br label %14

9:                                                ; preds = %1
  %10 = getelementptr inbounds nuw %class.vector.53, ptr %4, i32 0, i32 0
  %11 = load ptr, ptr %10, align 8, !tbaa !590
  %12 = getelementptr inbounds i32, ptr %11, i64 -1
  %13 = load i32, ptr %12, align 4, !tbaa !66
  store i32 %13, ptr %2, align 4
  br label %14

14:                                               ; preds = %9, %8
  %15 = load i32, ptr %2, align 4
  ret i32 %15
}

; Function Attrs: mustprogress uwtable
define linkonce_odr hidden void @_Z7deallocIN7datalog8rule_setEEvPT_(ptr noundef %0) #4 comdat {
  %2 = alloca ptr, align 8
  store ptr %0, ptr %2, align 8, !tbaa !411
  %3 = load ptr, ptr %2, align 8, !tbaa !411
  %4 = icmp eq ptr %3, null
  br i1 %4, label %5, label %6

5:                                                ; preds = %1
  br label %9

6:                                                ; preds = %1
  %7 = load ptr, ptr %2, align 8, !tbaa !411
  call void @_ZN7datalog8rule_setD1Ev(ptr noundef nonnull align 8 dereferenceable(248) %7) #3
  %8 = load ptr, ptr %2, align 8, !tbaa !411
  call void @_ZN6memory10deallocateEPv(ptr noundef %8)
  br label %9

9:                                                ; preds = %6, %5
  ret void
}

; Function Attrs: mustprogress uwtable
define linkonce_odr hidden noundef i32 @_ZNK15ref_vector_coreIN7datalog4ruleE19ref_manager_wrapperIS1_NS0_12rule_managerEEE4sizeEv(ptr noundef nonnull align 8 dereferenceable(16) %0) #4 comdat align 2 {
  %2 = alloca ptr, align 8
  store ptr %0, ptr %2, align 8, !tbaa !586
  %3 = load ptr, ptr %2, align 8
  %4 = getelementptr inbounds nuw %class.ref_vector_core.96, ptr %3, i32 0, i32 1
  %5 = call noundef i32 @_ZNK6vectorIPN7datalog4ruleELb0EjE4sizeEv(ptr noundef nonnull align 8 dereferenceable(8) %4)
  ret i32 %5
}

; Function Attrs: mustprogress nounwind uwtable
define linkonce_odr hidden noundef ptr @_ZN10scoped_ptrIN7datalog8rule_setEE6detachEv(ptr noundef nonnull align 8 dereferenceable(8) %0) #6 comdat align 2 {
  %2 = alloca ptr, align 8
  %3 = alloca ptr, align 8
  store ptr %0, ptr %2, align 8, !tbaa !414
  %4 = load ptr, ptr %2, align 8
  call void @llvm.lifetime.start.p0(i64 8, ptr %3) #3
  %5 = getelementptr inbounds nuw %class.scoped_ptr.153, ptr %4, i32 0, i32 0
  %6 = load ptr, ptr %5, align 8, !tbaa !416
  store ptr %6, ptr %3, align 8, !tbaa !411
  %7 = getelementptr inbounds nuw %class.scoped_ptr.153, ptr %4, i32 0, i32 0
  store ptr null, ptr %7, align 8, !tbaa !416
  %8 = load ptr, ptr %3, align 8, !tbaa !411
  call void @llvm.lifetime.end.p0(i64 8, ptr %3) #3
  ret ptr %8
}

; Function Attrs: mustprogress uwtable
define linkonce_odr hidden noundef nonnull align 8 dereferenceable(8) ptr @_ZN10scoped_ptrIN7datalog8rule_setEEaSEPS1_(ptr noundef nonnull align 8 dereferenceable(8) %0, ptr noundef %1) #4 comdat align 2 {
  %3 = alloca ptr, align 8
  %4 = alloca ptr, align 8
  store ptr %0, ptr %3, align 8, !tbaa !414
  store ptr %1, ptr %4, align 8, !tbaa !411
  %5 = load ptr, ptr %3, align 8
  %6 = getelementptr inbounds nuw %class.scoped_ptr.153, ptr %5, i32 0, i32 0
  %7 = load ptr, ptr %6, align 8, !tbaa !416
  %8 = load ptr, ptr %4, align 8, !tbaa !411
  %9 = icmp ne ptr %7, %8
  br i1 %9, label %10, label %15

10:                                               ; preds = %2
  %11 = getelementptr inbounds nuw %class.scoped_ptr.153, ptr %5, i32 0, i32 0
  %12 = load ptr, ptr %11, align 8, !tbaa !416
  call void @_Z7deallocIN7datalog8rule_setEEvPT_(ptr noundef %12)
  %13 = load ptr, ptr %4, align 8, !tbaa !411
  %14 = getelementptr inbounds nuw %class.scoped_ptr.153, ptr %5, i32 0, i32 0
  store ptr %13, ptr %14, align 8, !tbaa !416
  br label %15

15:                                               ; preds = %10, %2
  ret ptr %5
}

; Function Attrs: mustprogress nounwind uwtable
define linkonce_odr hidden noundef ptr @_ZNK10scoped_ptrIN7datalog8rule_setEEptEv(ptr noundef nonnull align 8 dereferenceable(8) %0) #6 comdat align 2 {
  %2 = alloca ptr, align 8
  store ptr %0, ptr %2, align 8, !tbaa !414
  %3 = load ptr, ptr %2, align 8
  %4 = getelementptr inbounds nuw %class.scoped_ptr.153, ptr %3, i32 0, i32 0
  %5 = load ptr, ptr %4, align 8, !tbaa !416
  ret ptr %5
}

; Function Attrs: mustprogress nounwind uwtable
define linkonce_odr hidden noundef nonnull align 8 dereferenceable(248) ptr @_ZN10scoped_ptrIN7datalog8rule_setEEdeEv(ptr noundef nonnull align 8 dereferenceable(8) %0) #6 comdat align 2 {
  %2 = alloca ptr, align 8
  store ptr %0, ptr %2, align 8, !tbaa !414
  %3 = load ptr, ptr %2, align 8
  %4 = getelementptr inbounds nuw %class.scoped_ptr.153, ptr %3, i32 0, i32 0
  %5 = load ptr, ptr %4, align 8, !tbaa !416
  ret ptr %5
}

; Function Attrs: mustprogress nounwind uwtable
define linkonce_odr hidden void @_ZN10scoped_ptrIN7datalog8rule_setEEC2EPS1_(ptr noundef nonnull align 8 dereferenceable(8) %0, ptr noundef %1) unnamed_addr #6 comdat align 2 {
  %3 = alloca ptr, align 8
  %4 = alloca ptr, align 8
  store ptr %0, ptr %3, align 8, !tbaa !414
  store ptr %1, ptr %4, align 8, !tbaa !411
  %5 = load ptr, ptr %3, align 8
  %6 = getelementptr inbounds nuw %class.scoped_ptr.153, ptr %5, i32 0, i32 0
  %7 = load ptr, ptr %4, align 8, !tbaa !411
  store ptr %7, ptr %6, align 8, !tbaa !416
  ret void
}

; Function Attrs: mustprogress uwtable
define linkonce_odr hidden noundef i32 @_ZNK7datalog8rule_set13get_num_rulesEv(ptr noundef nonnull align 8 dereferenceable(248) %0) #4 comdat align 2 {
  %2 = alloca ptr, align 8
  store ptr %0, ptr %2, align 8, !tbaa !411
  %3 = load ptr, ptr %2, align 8
  %4 = getelementptr inbounds nuw %"class.datalog::rule_set", ptr %3, i32 0, i32 2
  %5 = call noundef i32 @_ZNK15ref_vector_coreIN7datalog4ruleE19ref_manager_wrapperIS1_NS0_12rule_managerEEE4sizeEv(ptr noundef nonnull align 8 dereferenceable(16) %4)
  ret i32 %5
}

; Function Attrs: mustprogress uwtable
define hidden noundef ptr @_ZN7datalog25mk_interp_tail_simplifierclERKNS_8rule_setE(ptr noundef nonnull align 8 dereferenceable(424) %0, ptr noundef nonnull align 8 dereferenceable(248) %1) unnamed_addr #4 align 2 personality ptr @__gxx_personality_v0 {
  %3 = alloca ptr, align 8
  %4 = alloca ptr, align 8
  %5 = alloca ptr, align 8
  %6 = alloca %class.scoped_ptr.153, align 8
  %7 = alloca ptr, align 8
  %8 = alloca i32, align 4
  store ptr %0, ptr %4, align 8, !tbaa !110
  store ptr %1, ptr %5, align 8, !tbaa !411
  %9 = load ptr, ptr %4, align 8
  %10 = load ptr, ptr %5, align 8, !tbaa !411
  %11 = call noundef i32 @_ZNK7datalog8rule_set13get_num_rulesEv(ptr noundef nonnull align 8 dereferenceable(248) %10)
  %12 = icmp eq i32 %11, 0
  br i1 %12, label %13, label %14

13:                                               ; preds = %2
  store ptr null, ptr %3, align 8
  br label %38

14:                                               ; preds = %2
  call void @llvm.lifetime.start.p0(i64 8, ptr %6) #3
  %15 = call noalias noundef ptr @_ZN6memory8allocateEm(i64 noundef 248)
  %16 = getelementptr inbounds nuw %"class.datalog::mk_interp_tail_simplifier", ptr %9, i32 0, i32 2
  %17 = load ptr, ptr %16, align 8, !tbaa !317
  call void @_ZN7datalog8rule_setC1ERNS_7contextE(ptr noundef nonnull align 8 dereferenceable(248) %15, ptr noundef nonnull align 8 dereferenceable(3028) %17)
  call void @_ZN10scoped_ptrIN7datalog8rule_setEEC2EPS1_(ptr noundef nonnull align 8 dereferenceable(8) %6, ptr noundef %15)
  %18 = load ptr, ptr %5, align 8, !tbaa !411
  %19 = invoke noundef nonnull align 8 dereferenceable(248) ptr @_ZN10scoped_ptrIN7datalog8rule_setEEdeEv(ptr noundef nonnull align 8 dereferenceable(8) %6)
          to label %20 unwind label %28

20:                                               ; preds = %14
  %21 = invoke noundef zeroext i1 @_ZN7datalog25mk_interp_tail_simplifier15transform_rulesERKNS_8rule_setERS1_(ptr noundef nonnull align 8 dereferenceable(424) %9, ptr noundef nonnull align 8 dereferenceable(248) %18, ptr noundef nonnull align 8 dereferenceable(248) %19)
          to label %22 unwind label %28

22:                                               ; preds = %20
  br i1 %21, label %23, label %32

23:                                               ; preds = %22
  %24 = invoke noundef ptr @_ZNK10scoped_ptrIN7datalog8rule_setEEptEv(ptr noundef nonnull align 8 dereferenceable(8) %6)
          to label %25 unwind label %28

25:                                               ; preds = %23
  %26 = load ptr, ptr %5, align 8, !tbaa !411
  invoke void @_ZN7datalog8rule_set18inherit_predicatesERKS0_(ptr noundef nonnull align 8 dereferenceable(248) %24, ptr noundef nonnull align 8 dereferenceable(248) %26)
          to label %27 unwind label %28

27:                                               ; preds = %25
  br label %35

28:                                               ; preds = %35, %32, %25, %23, %20, %14
  %29 = landingpad { ptr, i32 }
          cleanup
  %30 = extractvalue { ptr, i32 } %29, 0
  store ptr %30, ptr %7, align 8
  %31 = extractvalue { ptr, i32 } %29, 1
  store i32 %31, ptr %8, align 4
  call void @_ZN10scoped_ptrIN7datalog8rule_setEED2Ev(ptr noundef nonnull align 8 dereferenceable(8) %6) #3
  call void @llvm.lifetime.end.p0(i64 8, ptr %6) #3
  br label %40

32:                                               ; preds = %22
  %33 = invoke noundef nonnull align 8 dereferenceable(8) ptr @_ZN10scoped_ptrIN7datalog8rule_setEEaSEPS1_(ptr noundef nonnull align 8 dereferenceable(8) %6, ptr noundef null)
          to label %34 unwind label %28

34:                                               ; preds = %32
  br label %35

35:                                               ; preds = %34, %27
  %36 = invoke noundef ptr @_ZN10scoped_ptrIN7datalog8rule_setEE6detachEv(ptr noundef nonnull align 8 dereferenceable(8) %6)
          to label %37 unwind label %28

37:                                               ; preds = %35
  store ptr %36, ptr %3, align 8
  call void @_ZN10scoped_ptrIN7datalog8rule_setEED2Ev(ptr noundef nonnull align 8 dereferenceable(8) %6) #3
  call void @llvm.lifetime.end.p0(i64 8, ptr %6) #3
  br label %38

38:                                               ; preds = %37, %13
  %39 = load ptr, ptr %3, align 8
  ret ptr %39

40:                                               ; preds = %28
  %41 = load ptr, ptr %7, align 8
  %42 = load i32, ptr %8, align 4
  %43 = insertvalue { ptr, i32 } poison, ptr %41, 0
  %44 = insertvalue { ptr, i32 } %43, i32 %42, 1
  resume { ptr, i32 } %44
}