; Function Attrs: mustprogress uwtable
define hidden noundef ptr @_ZN7datalog25mk_interp_tail_simplifierclERKNS_8rule_setE(ptr noundef nonnull align 8 dereferenceable(424) %0, ptr noundef nonnull align 8 dereferenceable(248) %1) unnamed_addr #3 align 2 personality ptr @__gxx_personality_v0 {
  %3 = alloca %class.scoped_ptr.153, align 8
  %4 = getelementptr inbounds nuw i8, ptr %1, i64 24
  %5 = load ptr, ptr %4, align 8, !tbaa !401
  %6 = icmp eq ptr %5, null
  br i1 %6, label %_ZNK7datalog8rule_set13get_num_rulesEv.exit.thread, label %_ZNK7datalog8rule_set13get_num_rulesEv.exit

_ZNK7datalog8rule_set13get_num_rulesEv.exit:      ; preds = %2
  %7 = getelementptr inbounds i8, ptr %5, i64 -4
  %8 = load i32, ptr %7, align 4, !tbaa !65
  %9 = icmp eq i32 %8, 0
  br i1 %9, label %_ZNK7datalog8rule_set13get_num_rulesEv.exit.thread, label %10

10:                                               ; preds = %_ZNK7datalog8rule_set13get_num_rulesEv.exit
  call void @llvm.lifetime.start.p0(i64 8, ptr nonnull %3) #20
  %11 = tail call noalias noundef ptr @_ZN6memory8allocateEm(i64 noundef 248)
  %12 = getelementptr inbounds nuw i8, ptr %0, i64 32
  %13 = load ptr, ptr %12, align 8, !tbaa !309
  tail call void @_ZN7datalog8rule_setC1ERNS_7contextE(ptr noundef nonnull align 8 dereferenceable(248) %11, ptr noundef nonnull align 8 dereferenceable(3028) %13)
  store ptr %11, ptr %3, align 8, !tbaa !403
  %14 = invoke noundef zeroext i1 @_ZN7datalog25mk_interp_tail_simplifier15transform_rulesERKNS_8rule_setERS1_(ptr noundef nonnull align 8 dereferenceable(424) %0, ptr noundef nonnull align 8 dereferenceable(248) %1, ptr noundef nonnull align 8 dereferenceable(248) %11)
          to label %15 unwind label %17

15:                                               ; preds = %10
  br i1 %14, label %16, label %19

16:                                               ; preds = %15
  invoke void @_ZN7datalog8rule_set18inherit_predicatesERKS0_(ptr noundef nonnull align 8 dereferenceable(248) %11, ptr noundef nonnull align 8 dereferenceable(248) %1)
          to label %_ZN10scoped_ptrIN7datalog8rule_setEED2Ev.exit unwind label %17

17:                                               ; preds = %19, %16, %10
  %18 = landingpad { ptr, i32 }
          cleanup
  call void @_ZN10scoped_ptrIN7datalog8rule_setEED2Ev(ptr noundef nonnull align 8 dereferenceable(8) %3) #20
  call void @llvm.lifetime.end.p0(i64 8, ptr nonnull %3) #20
  resume { ptr, i32 } %18

19:                                               ; preds = %15
  tail call void @_ZN7datalog8rule_setD1Ev(ptr noundef nonnull align 8 dereferenceable(248) %11) #20
  invoke void @_ZN6memory10deallocateEPv(ptr noundef nonnull %11)
          to label %_ZN10scoped_ptrIN7datalog8rule_setEED2Ev.exit unwind label %17

_ZN10scoped_ptrIN7datalog8rule_setEED2Ev.exit:    ; preds = %19, %16
  %20 = phi ptr [ %11, %16 ], [ null, %19 ]
  call void @llvm.lifetime.end.p0(i64 8, ptr nonnull %3) #20
  br label %_ZNK7datalog8rule_set13get_num_rulesEv.exit.thread

_ZNK7datalog8rule_set13get_num_rulesEv.exit.thread: ; preds = %2, %_ZNK7datalog8rule_set13get_num_rulesEv.exit, %_ZN10scoped_ptrIN7datalog8rule_setEED2Ev.exit
  %.0 = phi ptr [ %20, %_ZN10scoped_ptrIN7datalog8rule_setEED2Ev.exit ], [ null, %_ZNK7datalog8rule_set13get_num_rulesEv.exit ], [ null, %2 ]
  ret ptr %.0
}